; Function Attrs: nofree norecurse nosync nounwind memory(readwrite, inaccessiblemem: none) uwtable
define internal void @entropy_decode_mono_3990(ptr noundef %0, i32 noundef %1) #5 {
  %.not5 = icmp eq i32 %1, 0
  br i1 %.not5, label %._crit_edge, label %.lr.ph

.lr.ph:                                           ; preds = %2
  %3 = getelementptr inbounds nuw i8, ptr %0, i64 7160
  %4 = load ptr, ptr %3, align 8, !tbaa !85
  %5 = getelementptr inbounds nuw i8, ptr %0, i64 7264
  br label %6

6:                                                ; preds = %.lr.ph, %6
  %.07 = phi ptr [ %4, %.lr.ph ], [ %9, %6 ]
  %.046 = phi i32 [ %1, %.lr.ph ], [ %7, %6 ]
  %7 = add nsw i32 %.046, -1
  %8 = tail call fastcc i32 @ape_decode_value_3990(ptr noundef nonnull %0, ptr noundef nonnull %5)
  %9 = getelementptr inbounds nuw i8, ptr %.07, i64 4
  store i32 %8, ptr %.07, align 4, !tbaa !61
  %.not = icmp eq i32 %7, 0
  br i1 %.not, label %._crit_edge, label %6, !llvm.loop !115

._crit_edge:                                      ; preds = %6, %2
  ret void
}